; Function Attrs: nounwind uwtable
define i32 @duckdb_je_prof_thread_name_set(ptr noundef %0, ptr noundef %1) local_unnamed_addr #4 {
  %3 = load i8, ptr @duckdb_je_opt_prof_sys_thread_name, align 1, !tbaa !17, !range !19, !noundef !20
  %4 = trunc nuw i8 %3 to i1
  br i1 %4, label %7, label %5

5:                                                ; preds = %2
  %6 = tail call i32 @duckdb_je_prof_thread_name_set_impl(ptr noundef %0, ptr noundef %1) #10
  br label %7

7:                                                ; preds = %2, %5
  %.0 = phi i32 [ %6, %5 ], [ 2, %2 ]
  ret i32 %.0
}